target datalayout = "e-m:e-p270:32:32-p271:32:32-p272:64:64-i64:64-i128:128-f80:128-n8:16:32:64-S128"
target triple = "x86_64-pc-linux-gnu"

%struct.wtap = type { ptr, ptr, i8, i32, i32, ptr, ptr, ptr, i32, ptr, ptr, ptr, ptr, ptr, ptr, ptr, ptr, ptr, ptr, i32, i32, ptr, ptr, ptr, ptr }

@dct3trace_magic_line1 = internal constant [22 x i8] c"<?xml version=\221.0\22?>\00", align 16
@dct3trace_magic_line2 = internal constant [7 x i8] c"<dump>\00", align 1
@dct3trace_file_type_subtype = internal global i32 -1, align 4

; Function Attrs: null_pointer_is_valid sspstrong uwtable
define hidden i32 @dct3trace_open(ptr noundef %0, ptr noundef %1, ptr noundef %2) #0 {
  %4 = alloca i32, align 4
  %5 = alloca ptr, align 8
  %6 = alloca ptr, align 8
  %7 = alloca ptr, align 8
  %8 = alloca [64 x i8], align 16
  %9 = alloca [64 x i8], align 16
  %10 = alloca i32, align 4
  store ptr %0, ptr %5, align 8
  store ptr %1, ptr %6, align 8
  store ptr %2, ptr %7, align 8
  call void @llvm.lifetime.start.p0(i64 64, ptr %8) #9
  call void @llvm.lifetime.start.p0(i64 64, ptr %9) #9
  %11 = getelementptr inbounds [64 x i8], ptr %8, i64 0, i64 0
  %12 = load ptr, ptr %5, align 8
  %13 = getelementptr inbounds nuw %struct.wtap, ptr %12, i32 0, i32 0
  %14 = load ptr, ptr %13, align 8
  %15 = call ptr @file_gets(ptr noundef %11, i32 noundef 64, ptr noundef %14)
  %16 = icmp eq ptr %15, null
  br i1 %16, label %24, label %17

17:                                               ; preds = %3
  %18 = getelementptr inbounds [64 x i8], ptr %9, i64 0, i64 0
  %19 = load ptr, ptr %5, align 8
  %20 = getelementptr inbounds nuw %struct.wtap, ptr %19, i32 0, i32 0
  %21 = load ptr, ptr %20, align 8
  %22 = call ptr @file_gets(ptr noundef %18, i32 noundef 64, ptr noundef %21)
  %23 = icmp eq ptr %22, null
  br i1 %23, label %24, label %40

24:                                               ; preds = %17, %3
  %25 = load ptr, ptr %5, align 8
  %26 = getelementptr inbounds nuw %struct.wtap, ptr %25, i32 0, i32 0
  %27 = load ptr, ptr %26, align 8
  %28 = load ptr, ptr %7, align 8
  %29 = call i32 @file_error(ptr noundef %27, ptr noundef %28)
  %30 = load ptr, ptr %6, align 8
  store i32 %29, ptr %30, align 4
  %31 = load ptr, ptr %6, align 8
  %32 = load i32, ptr %31, align 4
  %33 = icmp ne i32 %32, 0
  br i1 %33, label %34, label %39

34:                                               ; preds = %24
  %35 = load ptr, ptr %6, align 8
  %36 = load i32, ptr %35, align 4
  %37 = icmp ne i32 %36, -12
  br i1 %37, label %38, label %39

38:                                               ; preds = %34
  store i32 -1, ptr %4, align 4
  store i32 1, ptr %10, align 4
  br label %64

39:                                               ; preds = %34, %24
  store i32 0, ptr %4, align 4
  store i32 1, ptr %10, align 4
  br label %64

40:                                               ; preds = %17
  %41 = getelementptr inbounds [64 x i8], ptr %8, i64 0, i64 0
  %42 = call i32 @strncmp(ptr noundef @dct3trace_magic_line1, ptr noundef %41, i64 noundef 21) #10
  %43 = icmp ne i32 %42, 0
  br i1 %43, label %48, label %44

44:                                               ; preds = %40
  %45 = getelementptr inbounds [64 x i8], ptr %9, i64 0, i64 0
  %46 = call i32 @strncmp(ptr noundef @dct3trace_magic_line2, ptr noundef %45, i64 noundef 6) #10
  %47 = icmp ne i32 %46, 0
  br i1 %47, label %48, label %49

48:                                               ; preds = %44, %40
  store i32 0, ptr %4, align 4
  store i32 1, ptr %10, align 4
  br label %64

49:                                               ; preds = %44
  %50 = load ptr, ptr %5, align 8
  %51 = getelementptr inbounds nuw %struct.wtap, ptr %50, i32 0, i32 19
  store i32 116, ptr %51, align 8
  %52 = load i32, ptr @dct3trace_file_type_subtype, align 4
  %53 = load ptr, ptr %5, align 8
  %54 = getelementptr inbounds nuw %struct.wtap, ptr %53, i32 0, i32 3
  store i32 %52, ptr %54, align 4
  %55 = load ptr, ptr %5, align 8
  %56 = getelementptr inbounds nuw %struct.wtap, ptr %55, i32 0, i32 4
  store i32 0, ptr %56, align 8
  %57 = load ptr, ptr %5, align 8
  %58 = getelementptr inbounds nuw %struct.wtap, ptr %57, i32 0, i32 15
  store ptr @dct3trace_read, ptr %58, align 8
  %59 = load ptr, ptr %5, align 8
  %60 = getelementptr inbounds nuw %struct.wtap, ptr %59, i32 0, i32 16
  store ptr @dct3trace_seek_read, ptr %60, align 8
  %61 = load ptr, ptr %5, align 8
  %62 = getelementptr inbounds nuw %struct.wtap, ptr %61, i32 0, i32 20
  store i32 0, ptr %62, align 4
  %63 = load ptr, ptr %5, align 8
  call void @wtap_add_generated_idb(ptr noundef %63)
  store i32 1, ptr %4, align 4
  store i32 1, ptr %10, align 4
  br label %64

64:                                               ; preds = %49, %48, %39, %38
  call void @llvm.lifetime.end.p0(i64 64, ptr %9) #9
  call void @llvm.lifetime.end.p0(i64 64, ptr %8) #9
  %65 = load i32, ptr %4, align 4
  ret i32 %65
}