; Function Attrs: null_pointer_is_valid sspstrong uwtable
define hidden range(i32 -1, 2) i32 @dct3trace_open(ptr noundef %0, ptr noundef writeonly captures(none) %1, ptr noundef %2) local_unnamed_addr #0 {
  %4 = alloca [64 x i8], align 16
  %5 = alloca [64 x i8], align 16
  call void @llvm.lifetime.start.p0(i64 64, ptr nonnull %4) #8
  call void @llvm.lifetime.start.p0(i64 64, ptr nonnull %5) #8
  %6 = load ptr, ptr %0, align 8
  %7 = call ptr @file_gets(ptr noundef nonnull %4, i32 noundef 64, ptr noundef %6)
  %8 = icmp eq ptr %7, null
  br i1 %8, label %13, label %9

9:                                                ; preds = %3
  %10 = load ptr, ptr %0, align 8
  %11 = call ptr @file_gets(ptr noundef nonnull %5, i32 noundef 64, ptr noundef %10)
  %12 = icmp eq ptr %11, null
  br i1 %12, label %13, label %17

13:                                               ; preds = %9, %3
  %14 = load ptr, ptr %0, align 8
  %15 = call i32 @file_error(ptr noundef %14, ptr noundef %2)
  store i32 %15, ptr %1, align 4
  %switch.selectcmp.case1 = icmp ne i32 %15, 0
  %switch.selectcmp.case2 = icmp ne i32 %15, -12
  %switch.selectcmp.not = and i1 %switch.selectcmp.case1, %switch.selectcmp.case2
  %16 = sext i1 %switch.selectcmp.not to i32
  br label %27

17:                                               ; preds = %9
  %bcmp = call i32 @bcmp(ptr noundef nonnull dereferenceable(21) @dct3trace_magic_line1, ptr noundef nonnull dereferenceable(21) %4, i64 21)
  %.not = icmp eq i32 %bcmp, 0
  br i1 %.not, label %18, label %27

18:                                               ; preds = %17
  %bcmp15 = call i32 @bcmp(ptr noundef nonnull dereferenceable(6) @dct3trace_magic_line2, ptr noundef nonnull dereferenceable(6) %5, i64 6)
  %.not16 = icmp eq i32 %bcmp15, 0
  br i1 %.not16, label %19, label %27

19:                                               ; preds = %18
  %20 = getelementptr inbounds nuw i8, ptr %0, i64 144
  store i32 116, ptr %20, align 8
  %21 = load i32, ptr @dct3trace_file_type_subtype, align 4
  %22 = getelementptr inbounds nuw i8, ptr %0, i64 20
  store i32 %21, ptr %22, align 4
  %23 = getelementptr inbounds nuw i8, ptr %0, i64 24
  store i32 0, ptr %23, align 8
  %24 = getelementptr inbounds nuw i8, ptr %0, i64 112
  store ptr @dct3trace_read, ptr %24, align 8
  %25 = getelementptr inbounds nuw i8, ptr %0, i64 120
  store ptr @dct3trace_seek_read, ptr %25, align 8
  %26 = getelementptr inbounds nuw i8, ptr %0, i64 148
  store i32 0, ptr %26, align 4
  call void @wtap_add_generated_idb(ptr noundef %0)
  br label %27

27:                                               ; preds = %13, %17, %18, %19
  %.0 = phi i32 [ 1, %19 ], [ 0, %18 ], [ 0, %17 ], [ %16, %13 ]
  call void @llvm.lifetime.end.p0(i64 64, ptr nonnull %5) #8
  call void @llvm.lifetime.end.p0(i64 64, ptr nonnull %4) #8
  ret i32 %.0
}